target datalayout = "e-m:e-p270:32:32-p271:32:32-p272:64:64-i64:64-i128:128-f80:128-n8:16:32:64-S128"
target triple = "x86_64-pc-linux-gnu"

@_ZZN14duckdb_mbedtls14MbedTlsWrapper8ToBase16EPcS1_mE9HEX_CODES = internal constant [17 x i8] c"0123456789abcdef\00", align 16

; Function Attrs: mustprogress nounwind uwtable
define hidden void @_ZN14duckdb_mbedtls14MbedTlsWrapper8ToBase16EPcS1_m(ptr noundef %0, ptr noundef %1, i64 noundef %2) #4 align 2 {
  %4 = alloca ptr, align 8
  %5 = alloca ptr, align 8
  %6 = alloca i64, align 8
  %7 = alloca i64, align 8
  %8 = alloca i64, align 8
  %9 = alloca i32, align 4
  store ptr %0, ptr %4, align 8, !tbaa !3
  store ptr %1, ptr %5, align 8, !tbaa !3
  store i64 %2, ptr %6, align 8, !tbaa !8
  call void @llvm.lifetime.start.p0(i64 8, ptr %7) #13
  call void @llvm.lifetime.start.p0(i64 8, ptr %8) #13
  store i64 0, ptr %7, align 8, !tbaa !8
  store i64 0, ptr %8, align 8, !tbaa !8
  br label %10

10:                                               ; preds = %39, %3
  %11 = load i64, ptr %7, align 8, !tbaa !8
  %12 = load i64, ptr %6, align 8, !tbaa !8
  %13 = icmp ult i64 %11, %12
  br i1 %13, label %14, label %42

14:                                               ; preds = %10
  call void @llvm.lifetime.start.p0(i64 4, ptr %9) #13
  %15 = load ptr, ptr %4, align 8, !tbaa !3
  %16 = load i64, ptr %7, align 8, !tbaa !8
  %17 = getelementptr inbounds nuw i8, ptr %15, i64 %16
  %18 = load i8, ptr %17, align 1, !tbaa !21
  %19 = sext i8 %18 to i32
  store i32 %19, ptr %9, align 4, !tbaa !22
  %20 = load i32, ptr %9, align 4, !tbaa !22
  %21 = ashr i32 %20, 4
  %22 = and i32 %21, 15
  %23 = sext i32 %22 to i64
  %24 = getelementptr inbounds [17 x i8], ptr @_ZZN14duckdb_mbedtls14MbedTlsWrapper8ToBase16EPcS1_mE9HEX_CODES, i64 0, i64 %23
  %25 = load i8, ptr %24, align 1, !tbaa !21
  %26 = load ptr, ptr %5, align 8, !tbaa !3
  %27 = load i64, ptr %8, align 8, !tbaa !8
  %28 = add i64 %27, 1
  store i64 %28, ptr %8, align 8, !tbaa !8
  %29 = getelementptr inbounds nuw i8, ptr %26, i64 %27
  store i8 %25, ptr %29, align 1, !tbaa !21
  %30 = load i32, ptr %9, align 4, !tbaa !22
  %31 = and i32 %30, 15
  %32 = sext i32 %31 to i64
  %33 = getelementptr inbounds [17 x i8], ptr @_ZZN14duckdb_mbedtls14MbedTlsWrapper8ToBase16EPcS1_mE9HEX_CODES, i64 0, i64 %32
  %34 = load i8, ptr %33, align 1, !tbaa !21
  %35 = load ptr, ptr %5, align 8, !tbaa !3
  %36 = load i64, ptr %8, align 8, !tbaa !8
  %37 = add i64 %36, 1
  store i64 %37, ptr %8, align 8, !tbaa !8
  %38 = getelementptr inbounds nuw i8, ptr %35, i64 %36
  store i8 %34, ptr %38, align 1, !tbaa !21
  call void @llvm.lifetime.end.p0(i64 4, ptr %9) #13
  br label %39

39:                                               ; preds = %14
  %40 = load i64, ptr %7, align 8, !tbaa !8
  %41 = add i64 %40, 1
  store i64 %41, ptr %7, align 8, !tbaa !8
  br label %10, !llvm.loop !24

42:                                               ; preds = %10
  call void @llvm.lifetime.end.p0(i64 8, ptr %8) #13
  call void @llvm.lifetime.end.p0(i64 8, ptr %7) #13
  ret void
}